target datalayout = "e-m:e-p270:32:32-p271:32:32-p272:64:64-i64:64-i128:128-f80:128-n8:16:32:64-S128"
target triple = "x86_64-pc-linux-gnu"

%"struct.faiss::HNSW" = type <{ %"class.std::vector", %"class.std::vector.0", %"class.std::vector.0", %"class.std::vector.5", %"class.std::vector.0", i32, [4 x i8], %"struct.faiss::RandomGenerator", i32, i32, i32, i8, i8, [2 x i8] }>
%"class.std::vector" = type { %"struct.std::_Vector_base" }
%"struct.std::_Vector_base" = type { %"struct.std::_Vector_base<double, std::allocator<double>>::_Vector_impl" }
%"struct.std::_Vector_base<double, std::allocator<double>>::_Vector_impl" = type { %"struct.std::_Vector_base<double, std::allocator<double>>::_Vector_impl_data" }
%"struct.std::_Vector_base<double, std::allocator<double>>::_Vector_impl_data" = type { ptr, ptr, ptr }
%"class.std::vector.5" = type { %"struct.std::_Vector_base.6" }
%"struct.std::_Vector_base.6" = type { %"struct.std::_Vector_base<unsigned long, std::allocator<unsigned long>>::_Vector_impl" }
%"struct.std::_Vector_base<unsigned long, std::allocator<unsigned long>>::_Vector_impl" = type { %"struct.std::_Vector_base<unsigned long, std::allocator<unsigned long>>::_Vector_impl_data" }
%"struct.std::_Vector_base<unsigned long, std::allocator<unsigned long>>::_Vector_impl_data" = type { ptr, ptr, ptr }
%"class.std::vector.0" = type { %"struct.std::_Vector_base.1" }
%"struct.std::_Vector_base.1" = type { %"struct.std::_Vector_base<int, std::allocator<int>>::_Vector_impl" }
%"struct.std::_Vector_base<int, std::allocator<int>>::_Vector_impl" = type { %"struct.std::_Vector_base<int, std::allocator<int>>::_Vector_impl_data" }
%"struct.std::_Vector_base<int, std::allocator<int>>::_Vector_impl_data" = type { ptr, ptr, ptr }
%"struct.faiss::RandomGenerator" = type { %"class.std::mersenne_twister_engine" }
%"class.std::mersenne_twister_engine" = type { [624 x i64], i64 }

; Function Attrs: mustprogress nounwind uwtable
define linkonce_odr noundef nonnull align 8 dereferenceable(8) ptr @_ZNSt6vectorIdSaIdEEixEm(ptr noundef nonnull align 8 dereferenceable(24) %0, i64 noundef %1) #5 comdat align 2 {
  %3 = alloca ptr, align 8
  %4 = alloca i64, align 8
  store ptr %0, ptr %3, align 8, !tbaa !68
  store i64 %1, ptr %4, align 8, !tbaa !19
  %5 = load ptr, ptr %3, align 8
  %6 = getelementptr inbounds nuw %"struct.std::_Vector_base", ptr %5, i32 0, i32 0
  %7 = getelementptr inbounds nuw %"struct.std::_Vector_base<double, std::allocator<double>>::_Vector_impl_data", ptr %6, i32 0, i32 0
  %8 = load ptr, ptr %7, align 8, !tbaa !76
  %9 = load i64, ptr %4, align 8, !tbaa !19
  %10 = getelementptr inbounds nuw double, ptr %8, i64 %9
  ret ptr %10
}

; Function Attrs: mustprogress nounwind uwtable
define linkonce_odr noundef i64 @_ZNKSt6vectorIdSaIdEE4sizeEv(ptr noundef nonnull align 8 dereferenceable(24) %0) #5 comdat align 2 {
  %2 = alloca ptr, align 8
  store ptr %0, ptr %2, align 8, !tbaa !68
  %3 = load ptr, ptr %2, align 8
  %4 = getelementptr inbounds nuw %"struct.std::_Vector_base", ptr %3, i32 0, i32 0
  %5 = getelementptr inbounds nuw %"struct.std::_Vector_base<double, std::allocator<double>>::_Vector_impl_data", ptr %4, i32 0, i32 1
  %6 = load ptr, ptr %5, align 8, !tbaa !77
  %7 = getelementptr inbounds nuw %"struct.std::_Vector_base", ptr %3, i32 0, i32 0
  %8 = getelementptr inbounds nuw %"struct.std::_Vector_base<double, std::allocator<double>>::_Vector_impl_data", ptr %7, i32 0, i32 0
  %9 = load ptr, ptr %8, align 8, !tbaa !76
  %10 = ptrtoint ptr %6 to i64
  %11 = ptrtoint ptr %9 to i64
  %12 = sub i64 %10, %11
  %13 = sdiv exact i64 %12, 8
  ret i64 %13
}

; Function Attrs: mustprogress uwtable
define noundef i32 @_ZN5faiss4HNSW12random_levelEv(ptr noundef nonnull align 8 dereferenceable(5142) %0) #4 align 2 {
  %2 = alloca i32, align 4
  %3 = alloca ptr, align 8
  %4 = alloca double, align 8
  %5 = alloca i32, align 4
  %6 = alloca i32, align 4
  store ptr %0, ptr %3, align 8, !tbaa !4
  %7 = load ptr, ptr %3, align 8
  call void @llvm.lifetime.start.p0(i64 8, ptr %4) #3
  %8 = getelementptr inbounds nuw %"struct.faiss::HNSW", ptr %7, i32 0, i32 7
  %9 = call noundef float @_ZN5faiss15RandomGenerator10rand_floatEv(ptr noundef nonnull align 8 dereferenceable(5000) %8)
  %10 = fpext float %9 to double
  store double %10, ptr %4, align 8, !tbaa !72
  call void @llvm.lifetime.start.p0(i64 4, ptr %5) #3
  store i32 0, ptr %5, align 4, !tbaa !9
  br label %11

11:                                               ; preds = %36, %1
  %12 = load i32, ptr %5, align 4, !tbaa !9
  %13 = sext i32 %12 to i64
  %14 = getelementptr inbounds nuw %"struct.faiss::HNSW", ptr %7, i32 0, i32 0
  %15 = call noundef i64 @_ZNKSt6vectorIdSaIdEE4sizeEv(ptr noundef nonnull align 8 dereferenceable(24) %14) #3
  %16 = icmp ult i64 %13, %15
  br i1 %16, label %18, label %17

17:                                               ; preds = %11
  store i32 2, ptr %6, align 4
  br label %39

18:                                               ; preds = %11
  %19 = load double, ptr %4, align 8, !tbaa !72
  %20 = getelementptr inbounds nuw %"struct.faiss::HNSW", ptr %7, i32 0, i32 0
  %21 = load i32, ptr %5, align 4, !tbaa !9
  %22 = sext i32 %21 to i64
  %23 = call noundef nonnull align 8 dereferenceable(8) ptr @_ZNSt6vectorIdSaIdEEixEm(ptr noundef nonnull align 8 dereferenceable(24) %20, i64 noundef %22) #3
  %24 = load double, ptr %23, align 8, !tbaa !72
  %25 = fcmp olt double %19, %24
  br i1 %25, label %26, label %28

26:                                               ; preds = %18
  %27 = load i32, ptr %5, align 4, !tbaa !9
  store i32 %27, ptr %2, align 4
  store i32 1, ptr %6, align 4
  br label %39

28:                                               ; preds = %18
  %29 = getelementptr inbounds nuw %"struct.faiss::HNSW", ptr %7, i32 0, i32 0
  %30 = load i32, ptr %5, align 4, !tbaa !9
  %31 = sext i32 %30 to i64
  %32 = call noundef nonnull align 8 dereferenceable(8) ptr @_ZNSt6vectorIdSaIdEEixEm(ptr noundef nonnull align 8 dereferenceable(24) %29, i64 noundef %31) #3
  %33 = load double, ptr %32, align 8, !tbaa !72
  %34 = load double, ptr %4, align 8, !tbaa !72
  %35 = fsub double %34, %33
  store double %35, ptr %4, align 8, !tbaa !72
  br label %36

36:                                               ; preds = %28
  %37 = load i32, ptr %5, align 4, !tbaa !9
  %38 = add nsw i32 %37, 1
  store i32 %38, ptr %5, align 4, !tbaa !9
  br label %11, !llvm.loop !116

39:                                               ; preds = %26, %17
  call void @llvm.lifetime.end.p0(i64 4, ptr %5) #3
  %40 = load i32, ptr %6, align 4
  switch i32 %40, label %46 [
    i32 2, label %41
  ]

41:                                               ; preds = %39
  %42 = getelementptr inbounds nuw %"struct.faiss::HNSW", ptr %7, i32 0, i32 0
  %43 = call noundef i64 @_ZNKSt6vectorIdSaIdEE4sizeEv(ptr noundef nonnull align 8 dereferenceable(24) %42) #3
  %44 = sub i64 %43, 1
  %45 = trunc i64 %44 to i32
  store i32 %45, ptr %2, align 4
  store i32 1, ptr %6, align 4
  br label %46

46:                                               ; preds = %41, %39
  call void @llvm.lifetime.end.p0(i64 8, ptr %4) #3
  %47 = load i32, ptr %2, align 4
  ret i32 %47
}