; Function Attrs: mustprogress uwtable
define noundef i32 @_ZN5faiss4HNSW12random_levelEv(ptr noundef nonnull align 8 dereferenceable(5142) %0) local_unnamed_addr #3 align 2 {
  %2 = getelementptr inbounds nuw i8, ptr %0, i64 128
  %3 = tail call noundef float @_ZN5faiss15RandomGenerator10rand_floatEv(ptr noundef nonnull align 8 dereferenceable(5000) %2)
  %4 = getelementptr inbounds nuw i8, ptr %0, i64 8
  %5 = load ptr, ptr %4, align 8, !tbaa !55
  %6 = load ptr, ptr %0, align 8, !tbaa !53
  %7 = ptrtoint ptr %5 to i64
  %8 = ptrtoint ptr %6 to i64
  %9 = sub i64 %7, %8
  %10 = ashr exact i64 %9, 3
  %.not15.not = icmp eq ptr %5, %6
  br i1 %.not15.not, label %._crit_edge, label %.lr.ph.preheader

.lr.ph.preheader:                                 ; preds = %1
  %11 = fpext float %3 to double
  %umax = tail call i64 @llvm.umax.i64(i64 %10, i64 1)
  br label %.lr.ph

.lr.ph:                                           ; preds = %.lr.ph.preheader, %15
  %indvars.iv = phi i64 [ 0, %.lr.ph.preheader ], [ %indvars.iv.next, %15 ]
  %.01016 = phi double [ %11, %.lr.ph.preheader ], [ %16, %15 ]
  %12 = getelementptr inbounds nuw double, ptr %6, i64 %indvars.iv
  %13 = load double, ptr %12, align 8, !tbaa !56
  %14 = fcmp olt double %.01016, %13
  br i1 %14, label %.thread.loopexit, label %15

15:                                               ; preds = %.lr.ph
  %16 = fsub double %.01016, %13
  %indvars.iv.next = add nuw i64 %indvars.iv, 1
  %exitcond.not = icmp eq i64 %indvars.iv.next, %umax
  br i1 %exitcond.not, label %._crit_edge, label %.lr.ph, !llvm.loop !59

._crit_edge:                                      ; preds = %15, %1
  %17 = trunc i64 %10 to i32
  %18 = add i32 %17, -1
  br label %.thread

.thread.loopexit:                                 ; preds = %.lr.ph
  %19 = trunc nuw nsw i64 %indvars.iv to i32
  br label %.thread

.thread:                                          ; preds = %.thread.loopexit, %._crit_edge
  %.1 = phi i32 [ %18, %._crit_edge ], [ %19, %.thread.loopexit ]
  ret i32 %.1
}